target datalayout = "e-m:e-p270:32:32-p271:32:32-p272:64:64-i64:64-i128:128-f80:128-n8:16:32:64-S128"
target triple = "x86_64-pc-linux-gnu"

%struct.Vmem = type { ptr, i64, i64 }
%union.SourceSpan = type { i64 }
%struct.TypeInfo_ = type { i16, ptr, %union.SourceSpan, %union.anon.78 }
%union.anon.78 = type { %struct.anon.79 }
%struct.anon.79 = type { ptr, ptr }
%struct.anon.81 = type { ptr, ptr }
%struct.anon.80 = type { ptr, ptr }
%struct.VHeader_ = type { i32, i32, [0 x i8] }

@.str = private unnamed_addr constant [36 x i8] c"FATAL ERROR %s -> in %s @ in %s:%d \00", align 1
@.str.1 = private unnamed_addr constant [22 x i8] c"Should be unreachable\00", align 1
@.str.2 = private unnamed_addr constant [108 x i8] c"generated/home/dtcxzyw/WorkSpace/Projects/compilers/llvm-opt-benchmark/bench/c3c/c3c/src/compiler/copying.c\00", align 1
@type_info_arena = external global %struct.Vmem, align 8
@__func__.copy_type_info = private unnamed_addr constant [15 x i8] c"copy_type_info\00", align 1

; Function Attrs: nounwind uwtable
define internal ptr @vec_new_(i64 noundef %0, i64 noundef %1) #0 {
  %3 = alloca i64, align 8
  %4 = alloca i64, align 8
  %5 = alloca ptr, align 8
  store i64 %0, ptr %3, align 8
  store i64 %1, ptr %4, align 8
  %6 = load i64, ptr %3, align 8
  %7 = load i64, ptr %4, align 8
  %8 = mul i64 %6, %7
  %9 = add i64 %8, 8
  %10 = call ptr @calloc_arena(i64 noundef %9)
  store ptr %10, ptr %5, align 8
  %11 = load i64, ptr %4, align 8
  %12 = trunc i64 %11 to i32
  %13 = load ptr, ptr %5, align 8
  %14 = getelementptr inbounds %struct.VHeader_, ptr %13, i32 0, i32 1
  store i32 %12, ptr %14, align 4
  %15 = load ptr, ptr %5, align 8
  ret ptr %15
}

; Function Attrs: nounwind uwtable
define internal ptr @expand_(ptr noundef %0, i64 noundef %1) #0 {
  %3 = alloca ptr, align 8
  %4 = alloca i64, align 8
  %5 = alloca ptr, align 8
  %6 = alloca ptr, align 8
  %7 = alloca i64, align 8
  store ptr %0, ptr %3, align 8
  store i64 %1, ptr %4, align 8
  %8 = load ptr, ptr %3, align 8
  %9 = icmp ne ptr %8, null
  br i1 %9, label %13, label %10

10:                                               ; preds = %2
  %11 = load i64, ptr %4, align 8
  %12 = call ptr @vec_new_(i64 noundef %11, i64 noundef 8)
  store ptr %12, ptr %5, align 8
  br label %16

13:                                               ; preds = %2
  %14 = load ptr, ptr %3, align 8
  %15 = getelementptr inbounds %struct.VHeader_, ptr %14, i64 -1
  store ptr %15, ptr %5, align 8
  br label %16

16:                                               ; preds = %13, %10
  %17 = load ptr, ptr %5, align 8
  %18 = getelementptr inbounds %struct.VHeader_, ptr %17, i32 0, i32 0
  %19 = load i32, ptr %18, align 4
  %20 = load ptr, ptr %5, align 8
  %21 = getelementptr inbounds %struct.VHeader_, ptr %20, i32 0, i32 1
  %22 = load i32, ptr %21, align 4
  %23 = icmp eq i32 %19, %22
  br i1 %23, label %24, label %49

24:                                               ; preds = %16
  %25 = load i64, ptr %4, align 8
  %26 = load ptr, ptr %5, align 8
  %27 = getelementptr inbounds %struct.VHeader_, ptr %26, i32 0, i32 1
  %28 = load i32, ptr %27, align 4
  %29 = shl i32 %28, 1
  %30 = zext i32 %29 to i64
  %31 = call ptr @vec_new_(i64 noundef %25, i64 noundef %30)
  store ptr %31, ptr %6, align 8
  %32 = load i64, ptr %4, align 8
  %33 = load ptr, ptr %5, align 8
  %34 = getelementptr inbounds %struct.VHeader_, ptr %33, i32 0, i32 1
  %35 = load i32, ptr %34, align 4
  %36 = zext i32 %35 to i64
  %37 = mul i64 %32, %36
  %38 = add i64 %37, 8
  store i64 %38, ptr %7, align 8
  %39 = load ptr, ptr %6, align 8
  %40 = load ptr, ptr %5, align 8
  %41 = load i64, ptr %7, align 8
  call void @llvm.memcpy.p0.p0.i64(ptr align 4 %39, ptr align 4 %40, i64 %41, i1 false)
  %42 = load ptr, ptr %6, align 8
  store ptr %42, ptr %5, align 8
  %43 = load ptr, ptr %5, align 8
  %44 = getelementptr inbounds %struct.VHeader_, ptr %43, i32 0, i32 1
  %45 = load i32, ptr %44, align 4
  %46 = shl i32 %45, 1
  %47 = load ptr, ptr %6, align 8
  %48 = getelementptr inbounds %struct.VHeader_, ptr %47, i32 0, i32 1
  store i32 %46, ptr %48, align 4
  br label %49

49:                                               ; preds = %24, %16
  %50 = load ptr, ptr %5, align 8
  %51 = getelementptr inbounds %struct.VHeader_, ptr %50, i32 0, i32 0
  %52 = load i32, ptr %51, align 4
  %53 = add i32 %52, 1
  store i32 %53, ptr %51, align 4
  %54 = load ptr, ptr %5, align 8
  %55 = getelementptr inbounds %struct.VHeader_, ptr %54, i64 1
  ret ptr %55
}

; Function Attrs: nounwind uwtable
define internal ptr @type_info_calloc() #0 {
  %1 = call ptr @vmem_alloc(ptr noundef @type_info_arena, i64 noundef 40)
  ret ptr %1
}

; Function Attrs: nounwind uwtable
define internal ptr @copy_expr_list(ptr noundef %0, ptr noundef %1) #0 {
  %3 = alloca i32, align 4
  %4 = alloca ptr, align 8
  %5 = alloca ptr, align 8
  %6 = alloca i32, align 4
  %7 = alloca ptr, align 8
  %8 = alloca ptr, align 8
  %9 = alloca ptr, align 8
  %10 = alloca ptr, align 8
  %11 = alloca ptr, align 8
  %12 = alloca i32, align 4
  %13 = alloca i32, align 4
  %14 = alloca ptr, align 8
  store ptr %0, ptr %9, align 8
  store ptr %1, ptr %10, align 8
  store ptr null, ptr %11, align 8
  store i32 0, ptr %12, align 4
  %15 = load ptr, ptr %10, align 8
  store ptr %15, ptr %4, align 8
  %16 = load ptr, ptr %4, align 8
  %17 = icmp ne ptr %16, null
  br i1 %17, label %19, label %18

18:                                               ; preds = %2
  store i32 0, ptr %3, align 4
  br label %24

19:                                               ; preds = %2
  %20 = load ptr, ptr %4, align 8
  store ptr %20, ptr %5, align 8
  %21 = load ptr, ptr %5, align 8
  %22 = getelementptr inbounds %struct.VHeader_, ptr %21, i64 -1
  %23 = load i32, ptr %22, align 4
  store i32 %23, ptr %3, align 4
  br label %24

24:                                               ; preds = %19, %18
  %25 = load i32, ptr %3, align 4
  store i32 %25, ptr %13, align 4
  br label %26

26:                                               ; preds = %58, %24
  %27 = load i32, ptr %12, align 4
  %28 = load i32, ptr %13, align 4
  %29 = icmp ult i32 %27, %28
  br i1 %29, label %30, label %61

30:                                               ; preds = %26
  br label %31

31:                                               ; preds = %30
  %32 = load ptr, ptr %11, align 8
  %33 = call ptr @expand_(ptr noundef %32, i64 noundef 8)
  store ptr %33, ptr %14, align 8
  %34 = load ptr, ptr %14, align 8
  store ptr %34, ptr %11, align 8
  %35 = load ptr, ptr %9, align 8
  %36 = load ptr, ptr %10, align 8
  %37 = load i32, ptr %12, align 4
  %38 = zext i32 %37 to i64
  %39 = getelementptr inbounds ptr, ptr %36, i64 %38
  %40 = load ptr, ptr %39, align 8
  %41 = call ptr @copy_expr(ptr noundef %35, ptr noundef %40)
  %42 = load ptr, ptr %11, align 8
  %43 = load ptr, ptr %11, align 8
  store ptr %43, ptr %7, align 8
  %44 = load ptr, ptr %7, align 8
  %45 = icmp ne ptr %44, null
  br i1 %45, label %47, label %46

46:                                               ; preds = %31
  store i32 0, ptr %6, align 4
  br label %52

47:                                               ; preds = %31
  %48 = load ptr, ptr %7, align 8
  store ptr %48, ptr %8, align 8
  %49 = load ptr, ptr %8, align 8
  %50 = getelementptr inbounds %struct.VHeader_, ptr %49, i64 -1
  %51 = load i32, ptr %50, align 4
  store i32 %51, ptr %6, align 4
  br label %52

52:                                               ; preds = %47, %46
  %53 = load i32, ptr %6, align 4
  %54 = sub i32 %53, 1
  %55 = zext i32 %54 to i64
  %56 = getelementptr inbounds ptr, ptr %42, i64 %55
  store ptr %41, ptr %56, align 8
  br label %57

57:                                               ; preds = %52
  br label %58

58:                                               ; preds = %57
  %59 = load i32, ptr %12, align 4
  %60 = add i32 %59, 1
  store i32 %60, ptr %12, align 4
  br label %26, !llvm.loop !11

61:                                               ; preds = %26
  %62 = load ptr, ptr %11, align 8
  ret ptr %62
}

; Function Attrs: nounwind uwtable
define internal ptr @type_info_copy(ptr noundef %0) #0 {
  %2 = alloca ptr, align 8
  %3 = alloca ptr, align 8
  store ptr %0, ptr %2, align 8
  %4 = call ptr @type_info_calloc()
  store ptr %4, ptr %3, align 8
  %5 = load ptr, ptr %3, align 8
  %6 = load ptr, ptr %2, align 8
  call void @llvm.memcpy.p0.p0.i64(ptr align 8 %5, ptr align 8 %6, i64 40, i1 false)
  %7 = load ptr, ptr %3, align 8
  ret ptr %7
}

; Function Attrs: nounwind uwtable
define internal ptr @copy_type_info(ptr noundef %0, ptr noundef %1) #0 {
  %3 = alloca ptr, align 8
  %4 = alloca ptr, align 8
  %5 = alloca ptr, align 8
  %6 = alloca ptr, align 8
  store ptr %0, ptr %4, align 8
  store ptr %1, ptr %5, align 8
  %7 = load ptr, ptr %5, align 8
  %8 = icmp ne ptr %7, null
  br i1 %8, label %10, label %9

9:                                                ; preds = %2
  store ptr null, ptr %3, align 8
  br label %101

10:                                               ; preds = %2
  %11 = load ptr, ptr %5, align 8
  %12 = call ptr @type_info_copy(ptr noundef %11)
  store ptr %12, ptr %6, align 8
  %13 = load ptr, ptr %5, align 8
  %14 = load i16, ptr %13, align 8
  %15 = and i16 %14, 7
  %16 = zext i16 %15 to i32
  %17 = icmp eq i32 %16, 2
  br i1 %17, label %18, label %20

18:                                               ; preds = %10
  %19 = load ptr, ptr %6, align 8
  store ptr %19, ptr %3, align 8
  br label %101

20:                                               ; preds = %10
  %21 = load ptr, ptr %5, align 8
  %22 = load i16, ptr %21, align 8
  %23 = lshr i16 %22, 3
  %24 = and i16 %23, 63
  %25 = zext i16 %24 to i32
  switch i32 %25, label %99 [
    i32 0, label %26
    i32 2, label %28
    i32 1, label %28
    i32 13, label %30
    i32 6, label %50
    i32 5, label %50
    i32 3, label %50
    i32 4, label %50
    i32 8, label %59
    i32 7, label %59
    i32 9, label %79
    i32 11, label %79
    i32 10, label %79
    i32 12, label %90
  ]

26:                                               ; preds = %20
  %27 = load ptr, ptr %6, align 8
  store ptr %27, ptr %3, align 8
  br label %101

28:                                               ; preds = %20, %20
  %29 = load ptr, ptr %6, align 8
  store ptr %29, ptr %3, align 8
  br label %101

30:                                               ; preds = %20
  %31 = load ptr, ptr %4, align 8
  %32 = load ptr, ptr %6, align 8
  %33 = getelementptr inbounds %struct.TypeInfo_, ptr %32, i32 0, i32 3
  %34 = getelementptr inbounds %struct.anon.81, ptr %33, i32 0, i32 0
  %35 = load ptr, ptr %34, align 8
  %36 = call ptr @copy_type_info(ptr noundef %31, ptr noundef %35)
  %37 = load ptr, ptr %6, align 8
  %38 = getelementptr inbounds %struct.TypeInfo_, ptr %37, i32 0, i32 3
  %39 = getelementptr inbounds %struct.anon.81, ptr %38, i32 0, i32 0
  store ptr %36, ptr %39, align 8
  %40 = load ptr, ptr %4, align 8
  %41 = load ptr, ptr %6, align 8
  %42 = getelementptr inbounds %struct.TypeInfo_, ptr %41, i32 0, i32 3
  %43 = getelementptr inbounds %struct.anon.81, ptr %42, i32 0, i32 1
  %44 = load ptr, ptr %43, align 8
  %45 = call ptr @copy_expr_list(ptr noundef %40, ptr noundef %44)
  %46 = load ptr, ptr %6, align 8
  %47 = getelementptr inbounds %struct.TypeInfo_, ptr %46, i32 0, i32 3
  %48 = getelementptr inbounds %struct.anon.81, ptr %47, i32 0, i32 1
  store ptr %45, ptr %48, align 8
  %49 = load ptr, ptr %6, align 8
  store ptr %49, ptr %3, align 8
  br label %101

50:                                               ; preds = %20, %20, %20, %20
  %51 = load ptr, ptr %4, align 8
  %52 = load ptr, ptr %5, align 8
  %53 = getelementptr inbounds %struct.TypeInfo_, ptr %52, i32 0, i32 3
  %54 = load ptr, ptr %53, align 8
  %55 = call ptr @copy_expr(ptr noundef %51, ptr noundef %54)
  %56 = load ptr, ptr %6, align 8
  %57 = getelementptr inbounds %struct.TypeInfo_, ptr %56, i32 0, i32 3
  store ptr %55, ptr %57, align 8
  %58 = load ptr, ptr %6, align 8
  store ptr %58, ptr %3, align 8
  br label %101

59:                                               ; preds = %20, %20
  %60 = load ptr, ptr %4, align 8
  %61 = load ptr, ptr %5, align 8
  %62 = getelementptr inbounds %struct.TypeInfo_, ptr %61, i32 0, i32 3
  %63 = getelementptr inbounds %struct.anon.80, ptr %62, i32 0, i32 1
  %64 = load ptr, ptr %63, align 8
  %65 = call ptr @copy_expr(ptr noundef %60, ptr noundef %64)
  %66 = load ptr, ptr %6, align 8
  %67 = getelementptr inbounds %struct.TypeInfo_, ptr %66, i32 0, i32 3
  %68 = getelementptr inbounds %struct.anon.80, ptr %67, i32 0, i32 1
  store ptr %65, ptr %68, align 8
  %69 = load ptr, ptr %4, align 8
  %70 = load ptr, ptr %5, align 8
  %71 = getelementptr inbounds %struct.TypeInfo_, ptr %70, i32 0, i32 3
  %72 = getelementptr inbounds %struct.anon.80, ptr %71, i32 0, i32 0
  %73 = load ptr, ptr %72, align 8
  %74 = call ptr @copy_type_info(ptr noundef %69, ptr noundef %73)
  %75 = load ptr, ptr %6, align 8
  %76 = getelementptr inbounds %struct.TypeInfo_, ptr %75, i32 0, i32 3
  %77 = getelementptr inbounds %struct.anon.80, ptr %76, i32 0, i32 0
  store ptr %74, ptr %77, align 8
  %78 = load ptr, ptr %6, align 8
  store ptr %78, ptr %3, align 8
  br label %101

79:                                               ; preds = %20, %20, %20
  %80 = load ptr, ptr %4, align 8
  %81 = load ptr, ptr %5, align 8
  %82 = getelementptr inbounds %struct.TypeInfo_, ptr %81, i32 0, i32 3
  %83 = getelementptr inbounds %struct.anon.80, ptr %82, i32 0, i32 0
  %84 = load ptr, ptr %83, align 8
  %85 = call ptr @copy_type_info(ptr noundef %80, ptr noundef %84)
  %86 = load ptr, ptr %6, align 8
  %87 = getelementptr inbounds %struct.TypeInfo_, ptr %86, i32 0, i32 3
  %88 = getelementptr inbounds %struct.anon.80, ptr %87, i32 0, i32 0
  store ptr %85, ptr %88, align 8
  %89 = load ptr, ptr %6, align 8
  store ptr %89, ptr %3, align 8
  br label %101

90:                                               ; preds = %20
  %91 = load ptr, ptr %4, align 8
  %92 = load ptr, ptr %5, align 8
  %93 = getelementptr inbounds %struct.TypeInfo_, ptr %92, i32 0, i32 3
  %94 = load ptr, ptr %93, align 8
  %95 = call ptr @copy_type_info(ptr noundef %91, ptr noundef %94)
  %96 = load ptr, ptr %6, align 8
  %97 = getelementptr inbounds %struct.TypeInfo_, ptr %96, i32 0, i32 3
  store ptr %95, ptr %97, align 8
  %98 = load ptr, ptr %6, align 8
  store ptr %98, ptr %3, align 8
  br label %101

99:                                               ; preds = %20
  br label %100

100:                                              ; preds = %99
  call void (ptr, ...) @error_exit(ptr noundef @.str, ptr noundef @.str.1, ptr noundef @__func__.copy_type_info, ptr noundef @.str.2, i32 noundef 852) #4
  unreachable

101:                                              ; preds = %90, %79, %59, %50, %30, %28, %26, %18, %9
  %102 = load ptr, ptr %3, align 8
  ret ptr %102
}