; Function Attrs: nounwind uwtable
define internal fastcc noundef ptr @copy_type_info(ptr noundef %0, ptr noundef readonly %1) unnamed_addr #0 {
  %.not = icmp eq ptr %1, null
  br i1 %.not, label %common.ret41, label %3

3:                                                ; preds = %2
  %4 = tail call noundef ptr @vmem_alloc(ptr noundef nonnull @type_info_arena, i64 noundef 40) #5
  tail call void @llvm.memcpy.p0.p0.i64(ptr noundef nonnull align 8 dereferenceable(40) %4, ptr noundef nonnull align 8 dereferenceable(40) %1, i64 40, i1 false)
  %5 = load i16, ptr %1, align 8
  %6 = and i16 %5, 7
  %7 = icmp eq i16 %6, 2
  br i1 %7, label %common.ret41, label %8

8:                                                ; preds = %3
  %9 = lshr i16 %5, 3
  %10 = and i16 %9, 63
  switch i16 %10, label %77 [
    i16 0, label %common.ret41
    i16 2, label %common.ret41
    i16 1, label %common.ret41
    i16 13, label %11
    i16 6, label %53
    i16 5, label %53
    i16 3, label %53
    i16 4, label %53
    i16 8, label %58
    i16 7, label %58
    i16 9, label %67
    i16 11, label %67
    i16 10, label %67
    i16 12, label %72
  ]

11:                                               ; preds = %8
  %12 = getelementptr inbounds i8, ptr %4, i64 24
  %13 = load ptr, ptr %12, align 8
  %14 = tail call fastcc ptr @copy_type_info(ptr noundef %0, ptr noundef %13)
  store ptr %14, ptr %12, align 8
  %15 = getelementptr inbounds i8, ptr %4, i64 32
  %16 = load ptr, ptr %15, align 8
  %.not.i = icmp eq ptr %16, null
  br i1 %.not.i, label %copy_expr_list.exit, label %17

17:                                               ; preds = %11
  %18 = getelementptr inbounds i8, ptr %16, i64 -8
  %19 = load i32, ptr %18, align 4
  %.not37 = icmp eq i32 %19, 0
  br i1 %.not37, label %copy_expr_list.exit, label %.lr.ph.preheader

.lr.ph.preheader:                                 ; preds = %17
  %wide.trip.count = zext i32 %19 to i64
  br label %.lr.ph

.lr.ph:                                           ; preds = %.lr.ph.preheader, %expand_.exit.i
  %indvars.iv = phi i64 [ 0, %.lr.ph.preheader ], [ %indvars.iv.next, %expand_.exit.i ]
  %.021.i35 = phi ptr [ null, %.lr.ph.preheader ], [ %45, %expand_.exit.i ]
  %.not.i.i = icmp eq ptr %.021.i35, null
  br i1 %.not.i.i, label %20, label %23

20:                                               ; preds = %.lr.ph
  %21 = tail call ptr @calloc_arena(i64 noundef 72) #5
  %22 = getelementptr inbounds i8, ptr %21, i64 4
  store i32 8, ptr %22, align 4
  br label %25

23:                                               ; preds = %.lr.ph
  %24 = getelementptr inbounds i8, ptr %.021.i35, i64 -8
  %.phi.trans.insert.i.i = getelementptr inbounds i8, ptr %.021.i35, i64 -4
  %.pre.i.i = load i32, ptr %.phi.trans.insert.i.i, align 4
  br label %25

25:                                               ; preds = %23, %20
  %26 = phi i32 [ %.pre.i.i, %23 ], [ 8, %20 ]
  %.0.i.i = phi ptr [ %24, %23 ], [ %21, %20 ]
  %27 = load i32, ptr %.0.i.i, align 4
  %28 = icmp eq i32 %27, %26
  br i1 %28, label %29, label %expand_.exit.i

29:                                               ; preds = %25
  %30 = getelementptr inbounds i8, ptr %.0.i.i, i64 4
  %31 = shl i32 %26, 1
  %32 = zext i32 %31 to i64
  %33 = shl nuw nsw i64 %32, 3
  %34 = or disjoint i64 %33, 8
  %35 = tail call ptr @calloc_arena(i64 noundef %34) #5
  %36 = getelementptr inbounds i8, ptr %35, i64 4
  store i32 %31, ptr %36, align 4
  %37 = load i32, ptr %30, align 4
  %38 = zext i32 %37 to i64
  %39 = shl nuw nsw i64 %38, 3
  %40 = add nuw nsw i64 %39, 8
  tail call void @llvm.memcpy.p0.p0.i64(ptr noundef nonnull align 4 dereferenceable(1) %35, ptr noundef nonnull align 4 dereferenceable(1) %.0.i.i, i64 %40, i1 false)
  %41 = load i32, ptr %36, align 4
  %42 = shl i32 %41, 1
  store i32 %42, ptr %36, align 4
  %.pre18.i.i = load i32, ptr %35, align 4
  br label %expand_.exit.i

expand_.exit.i:                                   ; preds = %29, %25
  %43 = phi i32 [ %.pre18.i.i, %29 ], [ %27, %25 ]
  %.1.i.i = phi ptr [ %35, %29 ], [ %.0.i.i, %25 ]
  %44 = add i32 %43, 1
  store i32 %44, ptr %.1.i.i, align 4
  %45 = getelementptr inbounds i8, ptr %.1.i.i, i64 8
  %46 = getelementptr inbounds ptr, ptr %16, i64 %indvars.iv
  %47 = load ptr, ptr %46, align 8
  %48 = tail call fastcc ptr @copy_expr(ptr noundef %0, ptr noundef %47)
  %49 = load i32, ptr %.1.i.i, align 4
  %50 = add i32 %49, -1
  %51 = zext i32 %50 to i64
  %52 = getelementptr inbounds ptr, ptr %45, i64 %51
  store ptr %48, ptr %52, align 8
  %indvars.iv.next = add nuw nsw i64 %indvars.iv, 1
  %exitcond.not = icmp eq i64 %indvars.iv.next, %wide.trip.count
  br i1 %exitcond.not, label %copy_expr_list.exit, label %.lr.ph, !llvm.loop !10

copy_expr_list.exit:                              ; preds = %expand_.exit.i, %11, %17
  %.021.i.lcssa = phi ptr [ null, %17 ], [ null, %11 ], [ %45, %expand_.exit.i ]
  store ptr %.021.i.lcssa, ptr %15, align 8
  br label %common.ret41

53:                                               ; preds = %8, %8, %8, %8
  %54 = getelementptr inbounds i8, ptr %1, i64 24
  %55 = load ptr, ptr %54, align 8
  %56 = tail call fastcc ptr @copy_expr(ptr noundef %0, ptr noundef %55)
  %57 = getelementptr inbounds i8, ptr %4, i64 24
  store ptr %56, ptr %57, align 8
  br label %common.ret41

common.ret41:                                     ; preds = %8, %8, %8, %3, %2, %53, %copy_expr_list.exit, %72, %67, %58
  %common.ret41.op = phi ptr [ %4, %58 ], [ %4, %67 ], [ %4, %72 ], [ %4, %53 ], [ %4, %copy_expr_list.exit ], [ null, %2 ], [ %4, %3 ], [ %4, %8 ], [ %4, %8 ], [ %4, %8 ]
  ret ptr %common.ret41.op

58:                                               ; preds = %8, %8
  %59 = getelementptr inbounds i8, ptr %1, i64 24
  %60 = getelementptr inbounds i8, ptr %1, i64 32
  %61 = load ptr, ptr %60, align 8
  %62 = tail call fastcc ptr @copy_expr(ptr noundef %0, ptr noundef %61)
  %63 = getelementptr inbounds i8, ptr %4, i64 24
  %64 = getelementptr inbounds i8, ptr %4, i64 32
  store ptr %62, ptr %64, align 8
  %65 = load ptr, ptr %59, align 8
  %66 = tail call fastcc ptr @copy_type_info(ptr noundef %0, ptr noundef %65)
  store ptr %66, ptr %63, align 8
  br label %common.ret41

67:                                               ; preds = %8, %8, %8
  %68 = getelementptr inbounds i8, ptr %1, i64 24
  %69 = load ptr, ptr %68, align 8
  %70 = tail call fastcc ptr @copy_type_info(ptr noundef %0, ptr noundef %69)
  %71 = getelementptr inbounds i8, ptr %4, i64 24
  store ptr %70, ptr %71, align 8
  br label %common.ret41

72:                                               ; preds = %8
  %73 = getelementptr inbounds i8, ptr %1, i64 24
  %74 = load ptr, ptr %73, align 8
  %75 = tail call fastcc ptr @copy_type_info(ptr noundef %0, ptr noundef %74)
  %76 = getelementptr inbounds i8, ptr %4, i64 24
  store ptr %75, ptr %76, align 8
  br label %common.ret41

77:                                               ; preds = %8
  tail call void (ptr, ...) @error_exit(ptr noundef nonnull @.str, ptr noundef nonnull @.str.1, ptr noundef nonnull @__func__.copy_type_info, ptr noundef nonnull @.str.2, i32 noundef 852) #6
  unreachable
}